; Function Attrs: nofree noinline norecurse nosync nounwind memory(argmem: readwrite) uwtable
define internal fastcc void @put_bilin_2d_hv_c(ptr noundef writeonly captures(none) %0, i64 noundef %1, ptr noundef readonly captures(none) %2, i64 noundef %3, i32 noundef range(i32 4, 65) %4, i32 noundef %5, i32 noundef %6, i32 noundef %7) unnamed_addr #8 {
  %9 = alloca [4160 x i16], align 16
  call void @llvm.lifetime.start.p0(i64 8320, ptr nonnull %9) #12
  %10 = add nsw i32 %5, 1
  %11 = lshr i64 %3, 1
  %wide.trip.count = zext nneg i32 %4 to i64
  br label %12

12:                                               ; preds = %26, %8
  %.052.i = phi ptr [ %9, %8 ], [ %27, %26 ]
  %.051.i = phi i32 [ %10, %8 ], [ %29, %26 ]
  %.049.i = phi ptr [ %2, %8 ], [ %28, %26 ]
  %.pre = load i16, ptr %.049.i, align 2, !tbaa !9
  br label %13

13:                                               ; preds = %12, %13
  %14 = phi i16 [ %.pre, %12 ], [ %17, %13 ]
  %indvars.iv = phi i64 [ 0, %12 ], [ %indvars.iv.next, %13 ]
  %15 = zext i16 %14 to i32
  %indvars.iv.next = add nuw nsw i64 %indvars.iv, 1
  %16 = getelementptr inbounds nuw i16, ptr %.049.i, i64 %indvars.iv.next
  %17 = load i16, ptr %16, align 2, !tbaa !9
  %18 = zext i16 %17 to i32
  %19 = sub nsw i32 %18, %15
  %20 = mul nsw i32 %19, %6
  %21 = add nsw i32 %20, 8
  %22 = lshr i32 %21, 4
  %23 = trunc i32 %22 to i16
  %24 = add i16 %14, %23
  %25 = getelementptr inbounds nuw i16, ptr %.052.i, i64 %indvars.iv
  store i16 %24, ptr %25, align 2, !tbaa !9
  %exitcond.not = icmp eq i64 %indvars.iv.next, %wide.trip.count
  br i1 %exitcond.not, label %26, label %13, !llvm.loop !135

26:                                               ; preds = %13
  %27 = getelementptr inbounds nuw i8, ptr %.052.i, i64 128
  %28 = getelementptr inbounds nuw i16, ptr %.049.i, i64 %11
  %29 = add nsw i32 %.051.i, -1
  %.not.i = icmp eq i32 %29, 0
  br i1 %.not.i, label %.preheader.preheader, label %12, !llvm.loop !136

.preheader.preheader:                             ; preds = %26
  %30 = lshr i64 %1, 1
  br label %.preheader

.preheader:                                       ; preds = %.preheader.preheader, %45
  %.053.i = phi i32 [ %48, %45 ], [ %5, %.preheader.preheader ]
  %.1.i = phi ptr [ %46, %45 ], [ %9, %.preheader.preheader ]
  %.050.i = phi ptr [ %47, %45 ], [ %0, %.preheader.preheader ]
  br label %31

31:                                               ; preds = %.preheader, %31
  %indvars.iv10 = phi i64 [ 0, %.preheader ], [ %indvars.iv.next11, %31 ]
  %32 = getelementptr inbounds nuw i16, ptr %.1.i, i64 %indvars.iv10
  %33 = load i16, ptr %32, align 2, !tbaa !9
  %34 = zext i16 %33 to i32
  %35 = getelementptr inbounds nuw i8, ptr %32, i64 128
  %36 = load i16, ptr %35, align 2, !tbaa !9
  %37 = zext i16 %36 to i32
  %38 = sub nsw i32 %37, %34
  %39 = mul nsw i32 %38, %7
  %40 = add nsw i32 %39, 8
  %41 = lshr i32 %40, 4
  %42 = trunc i32 %41 to i16
  %43 = add i16 %33, %42
  %44 = getelementptr inbounds nuw i16, ptr %.050.i, i64 %indvars.iv10
  store i16 %43, ptr %44, align 2, !tbaa !9
  %indvars.iv.next11 = add nuw nsw i64 %indvars.iv10, 1
  %exitcond14.not = icmp eq i64 %indvars.iv.next11, %wide.trip.count
  br i1 %exitcond14.not, label %45, label %31, !llvm.loop !137

45:                                               ; preds = %31
  %46 = getelementptr inbounds nuw i8, ptr %.1.i, i64 128
  %47 = getelementptr inbounds nuw i16, ptr %.050.i, i64 %30
  %48 = add nsw i32 %.053.i, -1
  %.not57.i = icmp eq i32 %48, 0
  br i1 %.not57.i, label %do_bilin_2d_c.exit, label %.preheader, !llvm.loop !138

do_bilin_2d_c.exit:                               ; preds = %45
  call void @llvm.lifetime.end.p0(i64 8320, ptr nonnull %9) #12
  ret void
}